; Function Attrs: mustprogress uwtable
define dso_local noundef zeroext i1 @_ZN7msdfgen7savePngERKNS_14BitmapConstRefIhLi1EEEPKc(ptr noundef nonnull readonly align 8 captures(none) dereferenceable(16) %bitmap, ptr noundef readonly captures(none) %filename) local_unnamed_addr #0 {
entry:
  %0 = load ptr, ptr %bitmap, align 8
  %width = getelementptr inbounds nuw i8, ptr %bitmap, i64 8
  %1 = load i32, ptr %width, align 8
  %height = getelementptr inbounds nuw i8, ptr %bitmap, i64 12
  %2 = load i32, ptr %height, align 4
  %call = tail call fastcc noundef zeroext i1 @_ZN7msdfgenL7pngSaveEPKhiiiiPKc(ptr noundef %0, i32 noundef %1, i32 noundef %2, i32 noundef 1, i32 noundef 0, ptr noundef %filename)
  ret i1 %call
}